target datalayout = "e-m:e-p270:32:32-p271:32:32-p272:64:64-i64:64-i128:128-f80:128-n8:16:32:64-S128"
target triple = "x86_64-pc-linux-gnu"

%struct.vtx_data = type { i64, ptr, ptr, ptr, ptr }

; Function Attrs: nounwind uwtable
define void @restore_old_weights(ptr noundef %0, i32 noundef %1, ptr noundef %2) #0 {
  %4 = alloca ptr, align 8
  %5 = alloca i32, align 4
  %6 = alloca ptr, align 8
  %7 = alloca i32, align 4
  store ptr %0, ptr %4, align 8, !tbaa !3
  store i32 %1, ptr %5, align 4, !tbaa !7
  store ptr %2, ptr %6, align 8, !tbaa !28
  call void @llvm.lifetime.start.p0(i64 4, ptr %7) #9
  %8 = load ptr, ptr %4, align 8, !tbaa !3
  %9 = getelementptr inbounds %struct.vtx_data, ptr %8, i64 0
  %10 = getelementptr inbounds nuw %struct.vtx_data, ptr %9, i32 0, i32 2
  %11 = load ptr, ptr %10, align 8, !tbaa !21
  call void @free(ptr noundef %11) #9
  %12 = load ptr, ptr %4, align 8, !tbaa !3
  %13 = getelementptr inbounds %struct.vtx_data, ptr %12, i64 0
  %14 = getelementptr inbounds nuw %struct.vtx_data, ptr %13, i32 0, i32 2
  store ptr null, ptr %14, align 8, !tbaa !21
  %15 = load ptr, ptr %6, align 8, !tbaa !28
  %16 = icmp ne ptr %15, null
  br i1 %16, label %17, label %41

17:                                               ; preds = %3
  store i32 0, ptr %7, align 4, !tbaa !7
  br label %18

18:                                               ; preds = %37, %17
  %19 = load i32, ptr %7, align 4, !tbaa !7
  %20 = load i32, ptr %5, align 4, !tbaa !7
  %21 = icmp slt i32 %19, %20
  br i1 %21, label %22, label %40

22:                                               ; preds = %18
  %23 = load ptr, ptr %6, align 8, !tbaa !28
  %24 = load ptr, ptr %4, align 8, !tbaa !3
  %25 = load i32, ptr %7, align 4, !tbaa !7
  %26 = sext i32 %25 to i64
  %27 = getelementptr inbounds %struct.vtx_data, ptr %24, i64 %26
  %28 = getelementptr inbounds nuw %struct.vtx_data, ptr %27, i32 0, i32 2
  store ptr %23, ptr %28, align 8, !tbaa !21
  %29 = load ptr, ptr %4, align 8, !tbaa !3
  %30 = load i32, ptr %7, align 4, !tbaa !7
  %31 = sext i32 %30 to i64
  %32 = getelementptr inbounds %struct.vtx_data, ptr %29, i64 %31
  %33 = getelementptr inbounds nuw %struct.vtx_data, ptr %32, i32 0, i32 0
  %34 = load i64, ptr %33, align 8, !tbaa !13
  %35 = load ptr, ptr %6, align 8, !tbaa !28
  %36 = getelementptr inbounds nuw float, ptr %35, i64 %34
  store ptr %36, ptr %6, align 8, !tbaa !28
  br label %37

37:                                               ; preds = %22
  %38 = load i32, ptr %7, align 4, !tbaa !7
  %39 = add nsw i32 %38, 1
  store i32 %39, ptr %7, align 4, !tbaa !7
  br label %18, !llvm.loop !34

40:                                               ; preds = %18
  br label %41

41:                                               ; preds = %40, %3
  call void @llvm.lifetime.end.p0(i64 4, ptr %7) #9
  ret void
}

; Function Attrs: nounwind uwtable
define ptr @compute_apsp_artificial_weights(ptr noundef %0, i32 noundef %1) #0 {
  %3 = alloca ptr, align 8
  %4 = alloca i32, align 4
  %5 = alloca ptr, align 8
  %6 = alloca ptr, align 8
  store ptr %0, ptr %3, align 8, !tbaa !3
  store i32 %1, ptr %4, align 4, !tbaa !7
  call void @llvm.lifetime.start.p0(i64 8, ptr %5) #9
  call void @llvm.lifetime.start.p0(i64 8, ptr %6) #9
  %7 = load ptr, ptr %3, align 8, !tbaa !3
  %8 = getelementptr inbounds %struct.vtx_data, ptr %7, i64 0
  %9 = getelementptr inbounds nuw %struct.vtx_data, ptr %8, i32 0, i32 2
  %10 = load ptr, ptr %9, align 8, !tbaa !21
  store ptr %10, ptr %6, align 8, !tbaa !28
  %11 = load ptr, ptr %3, align 8, !tbaa !3
  %12 = load i32, ptr %4, align 4, !tbaa !7
  call void @compute_new_weights(ptr noundef %11, i32 noundef %12)
  %13 = load ptr, ptr %3, align 8, !tbaa !3
  %14 = load i32, ptr %4, align 4, !tbaa !7
  %15 = call ptr @compute_apsp_dijkstra(ptr noundef %13, i32 noundef %14)
  store ptr %15, ptr %5, align 8, !tbaa !22
  %16 = load ptr, ptr %3, align 8, !tbaa !3
  %17 = load i32, ptr %4, align 4, !tbaa !7
  %18 = load ptr, ptr %6, align 8, !tbaa !28
  call void @restore_old_weights(ptr noundef %16, i32 noundef %17, ptr noundef %18)
  %19 = load ptr, ptr %5, align 8, !tbaa !22
  call void @llvm.lifetime.end.p0(i64 8, ptr %6) #9
  call void @llvm.lifetime.end.p0(i64 8, ptr %5) #9
  ret ptr %19
}