; Function Attrs: nounwind uwtable
define noalias noundef ptr @compute_apsp_artificial_weights(ptr noundef %0, i32 noundef %1) local_unnamed_addr #2 {
  %3 = getelementptr inbounds nuw i8, ptr %0, i64 16
  %4 = load ptr, ptr %3, align 8, !tbaa !18
  tail call void @compute_new_weights(ptr noundef %0, i32 noundef %1)
  %5 = tail call fastcc ptr @compute_apsp_dijkstra(ptr noundef %0, i32 noundef %1)
  %6 = load ptr, ptr %3, align 8, !tbaa !18
  tail call void @free(ptr noundef %6) #20
  store ptr null, ptr %3, align 8, !tbaa !18
  %.not.i = icmp ne ptr %4, null
  %7 = icmp sgt i32 %1, 0
  %or.cond.i = and i1 %7, %.not.i
  br i1 %or.cond.i, label %.lr.ph.preheader.i, label %restore_old_weights.exit

.lr.ph.preheader.i:                               ; preds = %2
  %wide.trip.count.i = zext nneg i32 %1 to i64
  br label %.lr.ph.i

.lr.ph.i:                                         ; preds = %.lr.ph.i, %.lr.ph.preheader.i
  %indvars.iv.i = phi i64 [ 0, %.lr.ph.preheader.i ], [ %indvars.iv.next.i, %.lr.ph.i ]
  %.01113.i = phi ptr [ %4, %.lr.ph.preheader.i ], [ %11, %.lr.ph.i ]
  %8 = getelementptr inbounds nuw %struct.vtx_data, ptr %0, i64 %indvars.iv.i
  %9 = getelementptr inbounds nuw i8, ptr %8, i64 16
  store ptr %.01113.i, ptr %9, align 8, !tbaa !18
  %10 = load i64, ptr %8, align 8, !tbaa !3
  %11 = getelementptr inbounds nuw float, ptr %.01113.i, i64 %10
  %indvars.iv.next.i = add nuw nsw i64 %indvars.iv.i, 1
  %exitcond.not.i = icmp eq i64 %indvars.iv.next.i, %wide.trip.count.i
  br i1 %exitcond.not.i, label %restore_old_weights.exit, label %.lr.ph.i, !llvm.loop !26

restore_old_weights.exit:                         ; preds = %.lr.ph.i, %2
  ret ptr %5
}